; Function Attrs: mustprogress null_pointer_is_valid sspstrong uwtable
define void @_ZNK22SimpleStatisticsDialog12treeItemDataEP15QTreeWidgetItem(ptr dead_on_unwind noalias writable sret(%class.QList.20) align 8 %0, ptr noundef readnone align 8 captures(none) dereferenceable_or_null(240) %1, ptr noundef %2) unnamed_addr #2 align 2 {
  %4 = icmp eq ptr %2, null
  br i1 %4, label %.thread, label %5

5:                                                ; preds = %3
  %6 = tail call ptr @__dynamic_cast(ptr nonnull %2, ptr nonnull @_ZTI15QTreeWidgetItem, ptr nonnull @_ZTI30SimpleStatisticsTreeWidgetItem, i64 0) #26
  %.not = icmp eq ptr %6, null
  br i1 %.not, label %.thread, label %7

7:                                                ; preds = %5
  tail call void @_ZN30SimpleStatisticsTreeWidgetItem7rowDataEv(ptr dead_on_unwind writable sret(%class.QList.20) align 8 %0, ptr noundef nonnull align 8 dereferenceable_or_null(112) %6)
  br label %8

.thread:                                          ; preds = %3, %5
  tail call void @llvm.memset.p0.i64(ptr noundef align 8 dereferenceable(24) %0, i8 0, i64 24, i1 false)
  br label %8

8:                                                ; preds = %.thread, %7
  ret void
}